target datalayout = "e-m:e-p270:32:32-p271:32:32-p272:64:64-i64:64-i128:128-f80:128-n8:16:32:64-S128"
target triple = "x86_64-pc-linux-gnu"

%struct.ge25519_p3 = type { [5 x i64], [5 x i64], [5 x i64], [5 x i64] }

; Function Attrs: alwaysinline nounwind
define internal ptr @memmove.inline(ptr nonnull %0, ptr nonnull %1, i64 %2) #3 {
  %4 = alloca ptr, align 8
  %5 = alloca ptr, align 8
  %6 = alloca i64, align 8
  store ptr %0, ptr %4, align 8
  store ptr %1, ptr %5, align 8
  store i64 %2, ptr %6, align 8
  %7 = load ptr, ptr %4, align 8
  %8 = load ptr, ptr %5, align 8
  %9 = load i64, ptr %6, align 8
  %10 = load ptr, ptr %4, align 8
  %11 = call i64 @llvm.objectsize.i64.p0(ptr %10, i1 false, i1 true, i1 true)
  %12 = call ptr @__memmove_chk(ptr noundef %7, ptr noundef %8, i64 noundef %9, i64 noundef %11) #7
  ret ptr %12
}

; Function Attrs: nounwind ssp uwtable
define dso_local i32 @crypto_sign_ed25519_seed_keypair(ptr noundef nonnull %0, ptr noundef nonnull %1, ptr noundef nonnull %2) #0 {
  %4 = alloca ptr, align 8
  %5 = alloca ptr, align 8
  %6 = alloca ptr, align 8
  %7 = alloca %struct.ge25519_p3, align 8
  store ptr %0, ptr %4, align 8
  store ptr %1, ptr %5, align 8
  store ptr %2, ptr %6, align 8
  call void @llvm.lifetime.start.p0(i64 160, ptr %7) #7
  %8 = load ptr, ptr %5, align 8
  %9 = load ptr, ptr %6, align 8
  %10 = call i32 @crypto_hash_sha512(ptr noundef %8, ptr noundef %9, i64 noundef 32)
  %11 = load ptr, ptr %5, align 8
  %12 = getelementptr i8, ptr %11, i64 0
  %13 = load i8, ptr %12, align 1
  %14 = zext i8 %13 to i32
  %15 = and i32 %14, 248
  %16 = trunc i32 %15 to i8
  store i8 %16, ptr %12, align 1
  %17 = load ptr, ptr %5, align 8
  %18 = getelementptr i8, ptr %17, i64 31
  %19 = load i8, ptr %18, align 1
  %20 = zext i8 %19 to i32
  %21 = and i32 %20, 127
  %22 = trunc i32 %21 to i8
  store i8 %22, ptr %18, align 1
  %23 = load ptr, ptr %5, align 8
  %24 = getelementptr i8, ptr %23, i64 31
  %25 = load i8, ptr %24, align 1
  %26 = zext i8 %25 to i32
  %27 = or i32 %26, 64
  %28 = trunc i32 %27 to i8
  store i8 %28, ptr %24, align 1
  %29 = load ptr, ptr %5, align 8
  call void @_sodium_ge25519_scalarmult_base(ptr noundef %7, ptr noundef %29)
  %30 = load ptr, ptr %4, align 8
  call void @_sodium_ge25519_p3_tobytes(ptr noundef %30, ptr noundef %7)
  %31 = load ptr, ptr %5, align 8
  %32 = load ptr, ptr %6, align 8
  %33 = call ptr @memmove.inline(ptr noundef %31, ptr noundef %32, i64 noundef 32) #7
  %34 = load ptr, ptr %5, align 8
  %35 = getelementptr i8, ptr %34, i64 32
  %36 = load ptr, ptr %4, align 8
  %37 = call ptr @memmove.inline(ptr noundef %35, ptr noundef %36, i64 noundef 32) #7
  call void @llvm.lifetime.end.p0(i64 160, ptr %7) #7
  ret i32 0
}

; Function Attrs: nounwind ssp uwtable
define dso_local i32 @crypto_sign_ed25519_keypair(ptr noundef nonnull %0, ptr noundef nonnull %1) #0 {
  %3 = alloca ptr, align 8
  %4 = alloca ptr, align 8
  %5 = alloca [32 x i8], align 16
  %6 = alloca i32, align 4
  store ptr %0, ptr %3, align 8
  store ptr %1, ptr %4, align 8
  call void @llvm.lifetime.start.p0(i64 32, ptr %5) #7
  call void @llvm.lifetime.start.p0(i64 4, ptr %6) #7
  %7 = getelementptr inbounds [32 x i8], ptr %5, i64 0, i64 0
  call void @randombytes_buf(ptr noundef %7, i64 noundef 32)
  %8 = load ptr, ptr %3, align 8
  %9 = load ptr, ptr %4, align 8
  %10 = getelementptr inbounds [32 x i8], ptr %5, i64 0, i64 0
  %11 = call i32 @crypto_sign_ed25519_seed_keypair(ptr noundef %8, ptr noundef %9, ptr noundef %10)
  store i32 %11, ptr %6, align 4
  %12 = getelementptr inbounds [32 x i8], ptr %5, i64 0, i64 0
  call void @sodium_memzero(ptr noundef %12, i64 noundef 32)
  %13 = load i32, ptr %6, align 4
  call void @llvm.lifetime.end.p0(i64 4, ptr %6) #7
  call void @llvm.lifetime.end.p0(i64 32, ptr %5) #7
  ret i32 %13
}